; Function Attrs: mustprogress uwtable
define hidden noundef zeroext i1 @_ZN7datalog21mk_unbound_compressor19is_unbound_argumentEPNS_4ruleEj(ptr noundef nonnull readonly align 8 captures(none) dereferenceable(208) %0, ptr noundef %1, i32 noundef %2) local_unnamed_addr #3 align 2 {
  %4 = getelementptr inbounds nuw i8, ptr %1, i64 40
  %5 = load ptr, ptr %4, align 8, !tbaa !280
  %6 = getelementptr inbounds nuw i8, ptr %5, i64 32
  %7 = zext i32 %2 to i64
  %8 = getelementptr inbounds nuw [0 x ptr], ptr %6, i64 0, i64 %7
  %9 = load ptr, ptr %8, align 8, !tbaa !284
  %10 = getelementptr inbounds nuw i8, ptr %9, i64 4
  %11 = load i32, ptr %10, align 4
  %12 = and i32 %11, 65535
  %13 = icmp eq i32 %12, 1
  br i1 %13, label %14, label %_Z6is_varPK3astRj.exit

14:                                               ; preds = %3
  %15 = getelementptr inbounds nuw i8, ptr %9, i64 16
  %16 = load i32, ptr %15, align 8, !tbaa !285
  %17 = getelementptr inbounds nuw i8, ptr %0, i64 40
  %18 = load ptr, ptr %17, align 8, !tbaa !289
  %19 = tail call noundef nonnull align 8 dereferenceable(8) ptr @_ZN7datalog12rule_manager17collect_tail_varsEPNS_4ruleE(ptr noundef nonnull align 8 dereferenceable(1104) %18, ptr noundef nonnull %1)
  %20 = lshr i32 %16, 5
  %21 = load ptr, ptr %19, align 8, !tbaa !290
  %22 = icmp eq ptr %21, null
  br i1 %22, label %_Z6is_varPK3astRj.exit, label %_ZNK6vectorIjLb0EjE4sizeEv.exit.i

_ZNK6vectorIjLb0EjE4sizeEv.exit.i:                ; preds = %14
  %23 = getelementptr inbounds i8, ptr %21, i64 -4
  %24 = load i32, ptr %23, align 4, !tbaa !262
  %25 = icmp ult i32 %20, %24
  br i1 %25, label %26, label %_Z6is_varPK3astRj.exit

26:                                               ; preds = %_ZNK6vectorIjLb0EjE4sizeEv.exit.i
  %27 = zext nneg i32 %20 to i64
  %28 = getelementptr inbounds nuw i32, ptr %21, i64 %27
  %29 = load i32, ptr %28, align 4, !tbaa !262
  %30 = and i32 %16, 31
  %31 = shl nuw i32 1, %30
  %32 = and i32 %29, %31
  %33 = icmp ne i32 %32, 0
  br label %_Z6is_varPK3astRj.exit

_Z6is_varPK3astRj.exit:                           ; preds = %26, %_ZNK6vectorIjLb0EjE4sizeEv.exit.i, %14, %3
  %34 = phi i1 [ false, %3 ], [ false, %_ZNK6vectorIjLb0EjE4sizeEv.exit.i ], [ %33, %26 ], [ false, %14 ]
  ret i1 %34
}